target datalayout = "e-m:e-p270:32:32-p271:32:32-p272:64:64-i64:64-i128:128-f80:128-n8:16:32:64-S128"
target triple = "x86_64-pc-linux-gnu"

%struct.nk_color = type { i8, i8, i8, i8 }

; Function Attrs: nounwind uwtable
define i32 @nk_rgb(i32 noundef %0, i32 noundef %1, i32 noundef %2) #0 {
  %4 = alloca %struct.nk_color, align 1
  %5 = alloca i32, align 4
  %6 = alloca i32, align 4
  %7 = alloca i32, align 4
  store i32 %0, ptr %5, align 4, !tbaa !13
  store i32 %1, ptr %6, align 4, !tbaa !13
  store i32 %2, ptr %7, align 4, !tbaa !13
  %8 = load i32, ptr %5, align 4, !tbaa !13
  %9 = icmp slt i32 %8, 255
  br i1 %9, label %10, label %12

10:                                               ; preds = %3
  %11 = load i32, ptr %5, align 4, !tbaa !13
  br label %13

12:                                               ; preds = %3
  br label %13

13:                                               ; preds = %12, %10
  %14 = phi i32 [ %11, %10 ], [ 255, %12 ]
  %15 = icmp slt i32 %14, 0
  br i1 %15, label %16, label %17

16:                                               ; preds = %13
  br label %25

17:                                               ; preds = %13
  %18 = load i32, ptr %5, align 4, !tbaa !13
  %19 = icmp slt i32 %18, 255
  br i1 %19, label %20, label %22

20:                                               ; preds = %17
  %21 = load i32, ptr %5, align 4, !tbaa !13
  br label %23

22:                                               ; preds = %17
  br label %23

23:                                               ; preds = %22, %20
  %24 = phi i32 [ %21, %20 ], [ 255, %22 ]
  br label %25

25:                                               ; preds = %23, %16
  %26 = phi i32 [ 0, %16 ], [ %24, %23 ]
  %27 = trunc i32 %26 to i8
  %28 = getelementptr inbounds nuw %struct.nk_color, ptr %4, i32 0, i32 0
  store i8 %27, ptr %28, align 1, !tbaa !49
  %29 = load i32, ptr %6, align 4, !tbaa !13
  %30 = icmp slt i32 %29, 255
  br i1 %30, label %31, label %33

31:                                               ; preds = %25
  %32 = load i32, ptr %6, align 4, !tbaa !13
  br label %34

33:                                               ; preds = %25
  br label %34

34:                                               ; preds = %33, %31
  %35 = phi i32 [ %32, %31 ], [ 255, %33 ]
  %36 = icmp slt i32 %35, 0
  br i1 %36, label %37, label %38

37:                                               ; preds = %34
  br label %46

38:                                               ; preds = %34
  %39 = load i32, ptr %6, align 4, !tbaa !13
  %40 = icmp slt i32 %39, 255
  br i1 %40, label %41, label %43

41:                                               ; preds = %38
  %42 = load i32, ptr %6, align 4, !tbaa !13
  br label %44

43:                                               ; preds = %38
  br label %44

44:                                               ; preds = %43, %41
  %45 = phi i32 [ %42, %41 ], [ 255, %43 ]
  br label %46

46:                                               ; preds = %44, %37
  %47 = phi i32 [ 0, %37 ], [ %45, %44 ]
  %48 = trunc i32 %47 to i8
  %49 = getelementptr inbounds nuw %struct.nk_color, ptr %4, i32 0, i32 1
  store i8 %48, ptr %49, align 1, !tbaa !51
  %50 = load i32, ptr %7, align 4, !tbaa !13
  %51 = icmp slt i32 %50, 255
  br i1 %51, label %52, label %54

52:                                               ; preds = %46
  %53 = load i32, ptr %7, align 4, !tbaa !13
  br label %55

54:                                               ; preds = %46
  br label %55

55:                                               ; preds = %54, %52
  %56 = phi i32 [ %53, %52 ], [ 255, %54 ]
  %57 = icmp slt i32 %56, 0
  br i1 %57, label %58, label %59

58:                                               ; preds = %55
  br label %67

59:                                               ; preds = %55
  %60 = load i32, ptr %7, align 4, !tbaa !13
  %61 = icmp slt i32 %60, 255
  br i1 %61, label %62, label %64

62:                                               ; preds = %59
  %63 = load i32, ptr %7, align 4, !tbaa !13
  br label %65

64:                                               ; preds = %59
  br label %65

65:                                               ; preds = %64, %62
  %66 = phi i32 [ %63, %62 ], [ 255, %64 ]
  br label %67

67:                                               ; preds = %65, %58
  %68 = phi i32 [ 0, %58 ], [ %66, %65 ]
  %69 = trunc i32 %68 to i8
  %70 = getelementptr inbounds nuw %struct.nk_color, ptr %4, i32 0, i32 2
  store i8 %69, ptr %70, align 1, !tbaa !52
  %71 = getelementptr inbounds nuw %struct.nk_color, ptr %4, i32 0, i32 3
  store i8 -1, ptr %71, align 1, !tbaa !53
  %72 = load i32, ptr %4, align 1
  ret i32 %72
}

; Function Attrs: nounwind uwtable
define i32 @nk_rgb_iv(ptr noundef %0) #0 {
  %2 = alloca %struct.nk_color, align 1
  %3 = alloca ptr, align 8
  store ptr %0, ptr %3, align 8, !tbaa !21
  %4 = load ptr, ptr %3, align 8, !tbaa !21
  %5 = getelementptr inbounds i32, ptr %4, i64 0
  %6 = load i32, ptr %5, align 4, !tbaa !13
  %7 = load ptr, ptr %3, align 8, !tbaa !21
  %8 = getelementptr inbounds i32, ptr %7, i64 1
  %9 = load i32, ptr %8, align 4, !tbaa !13
  %10 = load ptr, ptr %3, align 8, !tbaa !21
  %11 = getelementptr inbounds i32, ptr %10, i64 2
  %12 = load i32, ptr %11, align 4, !tbaa !13
  %13 = call i32 @nk_rgb(i32 noundef %6, i32 noundef %9, i32 noundef %12)
  store i32 %13, ptr %2, align 1
  %14 = load i32, ptr %2, align 1
  ret i32 %14
}