; Function Attrs: mustprogress nofree norecurse nosync nounwind willreturn memory(argmem: read) uwtable
define range(i32 -16777216, 0) i32 @nk_rgb_iv(ptr noundef readonly captures(none) %0) local_unnamed_addr #12 {
  %2 = load i32, ptr %0, align 4, !tbaa !7
  %3 = getelementptr inbounds nuw i8, ptr %0, i64 4
  %4 = load i32, ptr %3, align 4, !tbaa !7
  %5 = getelementptr inbounds nuw i8, ptr %0, i64 8
  %6 = load i32, ptr %5, align 4, !tbaa !7
  %7 = tail call i32 @llvm.smin.i32(i32 %2, i32 255)
  %8 = tail call i32 @llvm.smax.i32(i32 %7, i32 0)
  %9 = tail call i32 @llvm.smin.i32(i32 %4, i32 255)
  %10 = tail call i32 @llvm.smax.i32(i32 %9, i32 0)
  %11 = tail call i32 @llvm.smin.i32(i32 %6, i32 255)
  %12 = tail call i32 @llvm.smax.i32(i32 %11, i32 0)
  %.sroa.3.0.insert.shift.i = shl nuw nsw i32 %12, 16
  %.sroa.2.0.insert.shift.i = shl nuw nsw i32 %10, 8
  %.sroa.3.0.insert.insert.i = or disjoint i32 %.sroa.3.0.insert.shift.i, %.sroa.2.0.insert.shift.i
  %.sroa.2.0.insert.insert.i = or disjoint i32 %.sroa.3.0.insert.insert.i, %8
  %.sroa.0.0.insert.insert.i = or disjoint i32 %.sroa.2.0.insert.insert.i, -16777216
  ret i32 %.sroa.0.0.insert.insert.i
}